target datalayout = "e-m:e-p270:32:32-p271:32:32-p272:64:64-i64:64-i128:128-f80:128-n8:16:32:64-S128"
target triple = "x86_64-pc-linux-gnu"

%struct.portalhashent = type { [64 x i8], ptr }
%struct.PortalData = type { ptr, ptr, ptr, ptr, ptr, i32, i32, i32, ptr, i32, %struct.QueryCompletion, ptr, ptr, ptr, ptr, i32, i32, i32, i8, i8, ptr, ptr, ptr, ptr, ptr, ptr, ptr, i8, i8, i64, i64, i8 }
%struct.QueryCompletion = type { i32, i64 }
%struct.HASH_SEQ_STATUS = type { ptr, i32, ptr, i8, i32 }

@PortalHashTable = internal global ptr null, align 8

; Function Attrs: nounwind uwtable
define internal void @PortalReleaseCachedPlan(ptr noundef %0) #0 {
  %2 = alloca ptr, align 8
  store ptr %0, ptr %2, align 8
  %3 = load ptr, ptr %2, align 8
  %4 = getelementptr inbounds nuw %struct.PortalData, ptr %3, i32 0, i32 12
  %5 = load ptr, ptr %4, align 8
  %6 = icmp ne ptr %5, null
  br i1 %6, label %7, label %15

7:                                                ; preds = %1
  %8 = load ptr, ptr %2, align 8
  %9 = getelementptr inbounds nuw %struct.PortalData, ptr %8, i32 0, i32 12
  %10 = load ptr, ptr %9, align 8
  call void @ReleaseCachedPlan(ptr noundef %10, ptr noundef null)
  %11 = load ptr, ptr %2, align 8
  %12 = getelementptr inbounds nuw %struct.PortalData, ptr %11, i32 0, i32 12
  store ptr null, ptr %12, align 8
  %13 = load ptr, ptr %2, align 8
  %14 = getelementptr inbounds nuw %struct.PortalData, ptr %13, i32 0, i32 11
  store ptr null, ptr %14, align 8
  br label %15

15:                                               ; preds = %7, %1
  ret void
}

; Function Attrs: nounwind uwtable
define dso_local void @MarkPortalFailed(ptr noundef %0) #0 {
  %2 = alloca ptr, align 8
  store ptr %0, ptr %2, align 8
  %3 = load ptr, ptr %2, align 8
  %4 = getelementptr inbounds nuw %struct.PortalData, ptr %3, i32 0, i32 17
  store i32 5, ptr %4, align 8
  %5 = load ptr, ptr %2, align 8
  %6 = getelementptr inbounds nuw %struct.PortalData, ptr %5, i32 0, i32 4
  %7 = load ptr, ptr %6, align 8
  %8 = icmp ne ptr %7, null
  br i1 %8, label %9, label %16

9:                                                ; preds = %1
  %10 = load ptr, ptr %2, align 8
  %11 = getelementptr inbounds nuw %struct.PortalData, ptr %10, i32 0, i32 4
  %12 = load ptr, ptr %11, align 8
  %13 = load ptr, ptr %2, align 8
  call void %12(ptr noundef %13)
  %14 = load ptr, ptr %2, align 8
  %15 = getelementptr inbounds nuw %struct.PortalData, ptr %14, i32 0, i32 4
  store ptr null, ptr %15, align 8
  br label %16

16:                                               ; preds = %9, %1
  ret void
}

; Function Attrs: nounwind uwtable
define dso_local void @AtSubAbort_Portals(i32 noundef %0, i32 noundef %1, ptr noundef %2, ptr noundef %3) #0 {
  %5 = alloca i32, align 4
  %6 = alloca i32, align 4
  %7 = alloca ptr, align 8
  %8 = alloca ptr, align 8
  %9 = alloca %struct.HASH_SEQ_STATUS, align 8
  %10 = alloca ptr, align 8
  %11 = alloca ptr, align 8
  %12 = alloca i32, align 4
  store i32 %0, ptr %5, align 4
  store i32 %1, ptr %6, align 4
  store ptr %2, ptr %7, align 8
  store ptr %3, ptr %8, align 8
  call void @llvm.lifetime.start.p0(i64 32, ptr %9) #6
  call void @llvm.lifetime.start.p0(i64 8, ptr %10) #6
  %13 = load ptr, ptr @PortalHashTable, align 8
  call void @hash_seq_init(ptr noundef %9, ptr noundef %13)
  br label %14

14:                                               ; preds = %94, %92, %4
  %15 = call ptr @hash_seq_search(ptr noundef %9)
  store ptr %15, ptr %10, align 8
  %16 = icmp ne ptr %15, null
  br i1 %16, label %17, label %95

17:                                               ; preds = %14
  call void @llvm.lifetime.start.p0(i64 8, ptr %11) #6
  %18 = load ptr, ptr %10, align 8
  %19 = getelementptr inbounds nuw %struct.portalhashent, ptr %18, i32 0, i32 1
  %20 = load ptr, ptr %19, align 8
  store ptr %20, ptr %11, align 8
  %21 = load ptr, ptr %11, align 8
  %22 = getelementptr inbounds nuw %struct.PortalData, ptr %21, i32 0, i32 5
  %23 = load i32, ptr %22, align 8
  %24 = load i32, ptr %5, align 4
  %25 = icmp ne i32 %23, %24
  br i1 %25, label %26, label %61

26:                                               ; preds = %17
  %27 = load ptr, ptr %11, align 8
  %28 = getelementptr inbounds nuw %struct.PortalData, ptr %27, i32 0, i32 6
  %29 = load i32, ptr %28, align 4
  %30 = load i32, ptr %5, align 4
  %31 = icmp eq i32 %29, %30
  br i1 %31, label %32, label %60

32:                                               ; preds = %26
  %33 = load i32, ptr %6, align 4
  %34 = load ptr, ptr %11, align 8
  %35 = getelementptr inbounds nuw %struct.PortalData, ptr %34, i32 0, i32 6
  store i32 %33, ptr %35, align 4
  %36 = load ptr, ptr %11, align 8
  %37 = getelementptr inbounds nuw %struct.PortalData, ptr %36, i32 0, i32 17
  %38 = load i32, ptr %37, align 8
  %39 = icmp eq i32 %38, 3
  br i1 %39, label %40, label %42

40:                                               ; preds = %32
  %41 = load ptr, ptr %11, align 8
  call void @MarkPortalFailed(ptr noundef %41)
  br label %42

42:                                               ; preds = %40, %32
  %43 = load ptr, ptr %11, align 8
  %44 = getelementptr inbounds nuw %struct.PortalData, ptr %43, i32 0, i32 17
  %45 = load i32, ptr %44, align 8
  %46 = icmp eq i32 %45, 5
  br i1 %46, label %47, label %59

47:                                               ; preds = %42
  %48 = load ptr, ptr %11, align 8
  %49 = getelementptr inbounds nuw %struct.PortalData, ptr %48, i32 0, i32 3
  %50 = load ptr, ptr %49, align 8
  %51 = icmp ne ptr %50, null
  br i1 %51, label %52, label %59

52:                                               ; preds = %47
  %53 = load ptr, ptr %11, align 8
  %54 = getelementptr inbounds nuw %struct.PortalData, ptr %53, i32 0, i32 3
  %55 = load ptr, ptr %54, align 8
  %56 = load ptr, ptr %7, align 8
  call void @ResourceOwnerNewParent(ptr noundef %55, ptr noundef %56)
  %57 = load ptr, ptr %11, align 8
  %58 = getelementptr inbounds nuw %struct.PortalData, ptr %57, i32 0, i32 3
  store ptr null, ptr %58, align 8
  br label %59

59:                                               ; preds = %52, %47, %42
  br label %60

60:                                               ; preds = %59, %26
  store i32 2, ptr %12, align 4
  br label %92, !llvm.loop !14

61:                                               ; preds = %17
  %62 = load ptr, ptr %11, align 8
  %63 = getelementptr inbounds nuw %struct.PortalData, ptr %62, i32 0, i32 17
  %64 = load i32, ptr %63, align 8
  %65 = icmp eq i32 %64, 2
  br i1 %65, label %71, label %66

66:                                               ; preds = %61
  %67 = load ptr, ptr %11, align 8
  %68 = getelementptr inbounds nuw %struct.PortalData, ptr %67, i32 0, i32 17
  %69 = load i32, ptr %68, align 8
  %70 = icmp eq i32 %69, 3
  br i1 %70, label %71, label %73

71:                                               ; preds = %66, %61
  %72 = load ptr, ptr %11, align 8
  call void @MarkPortalFailed(ptr noundef %72)
  br label %73

73:                                               ; preds = %71, %66
  %74 = load ptr, ptr %11, align 8
  %75 = getelementptr inbounds nuw %struct.PortalData, ptr %74, i32 0, i32 4
  %76 = load ptr, ptr %75, align 8
  %77 = icmp ne ptr %76, null
  br i1 %77, label %78, label %85

78:                                               ; preds = %73
  %79 = load ptr, ptr %11, align 8
  %80 = getelementptr inbounds nuw %struct.PortalData, ptr %79, i32 0, i32 4
  %81 = load ptr, ptr %80, align 8
  %82 = load ptr, ptr %11, align 8
  call void %81(ptr noundef %82)
  %83 = load ptr, ptr %11, align 8
  %84 = getelementptr inbounds nuw %struct.PortalData, ptr %83, i32 0, i32 4
  store ptr null, ptr %84, align 8
  br label %85

85:                                               ; preds = %78, %73
  %86 = load ptr, ptr %11, align 8
  call void @PortalReleaseCachedPlan(ptr noundef %86)
  %87 = load ptr, ptr %11, align 8
  %88 = getelementptr inbounds nuw %struct.PortalData, ptr %87, i32 0, i32 3
  store ptr null, ptr %88, align 8
  %89 = load ptr, ptr %11, align 8
  %90 = getelementptr inbounds nuw %struct.PortalData, ptr %89, i32 0, i32 2
  %91 = load ptr, ptr %90, align 8
  call void @MemoryContextDeleteChildren(ptr noundef %91)
  store i32 0, ptr %12, align 4
  br label %92

92:                                               ; preds = %85, %60
  call void @llvm.lifetime.end.p0(i64 8, ptr %11) #6
  %93 = load i32, ptr %12, align 4
  switch i32 %93, label %96 [
    i32 0, label %94
    i32 2, label %14
  ]

94:                                               ; preds = %92
  br label %14, !llvm.loop !14

95:                                               ; preds = %14
  call void @llvm.lifetime.end.p0(i64 8, ptr %10) #6
  call void @llvm.lifetime.end.p0(i64 32, ptr %9) #6
  ret void

96:                                               ; preds = %92
  unreachable
}