; Function Attrs: nounwind uwtable
define dso_local void @AtSubAbort_Portals(i32 noundef %0, i32 noundef %1, ptr noundef %2, ptr noundef readnone captures(none) %3) local_unnamed_addr #0 {
  %5 = alloca %struct.HASH_SEQ_STATUS, align 8
  call void @llvm.lifetime.start.p0(i64 32, ptr nonnull %5) #8
  %6 = load ptr, ptr @PortalHashTable, align 8
  call void @hash_seq_init(ptr noundef nonnull %5, ptr noundef %6) #8
  %7 = call ptr @hash_seq_search(ptr noundef nonnull %5) #8
  %.not33 = icmp eq ptr %7, null
  br i1 %.not33, label %._crit_edge, label %.lr.ph

.lr.ph:                                           ; preds = %4, %47
  %8 = phi ptr [ %48, %47 ], [ %7, %4 ]
  %9 = getelementptr inbounds nuw i8, ptr %8, i64 64
  %10 = load ptr, ptr %9, align 8
  %11 = getelementptr inbounds nuw i8, ptr %10, i64 40
  %12 = load i32, ptr %11, align 8
  %.not27 = icmp eq i32 %12, %0
  br i1 %.not27, label %30, label %13

13:                                               ; preds = %.lr.ph
  %14 = getelementptr inbounds nuw i8, ptr %10, i64 44
  %15 = load i32, ptr %14, align 4
  %16 = icmp eq i32 %15, %0
  br i1 %16, label %17, label %47, !llvm.loop !13

17:                                               ; preds = %13
  store i32 %1, ptr %14, align 4
  %18 = getelementptr inbounds nuw i8, ptr %10, i64 128
  %19 = load i32, ptr %18, align 8
  %20 = icmp eq i32 %19, 3
  br i1 %20, label %21, label %MarkPortalFailed.exit

21:                                               ; preds = %17
  store i32 5, ptr %18, align 8
  %22 = getelementptr inbounds nuw i8, ptr %10, i64 32
  %23 = load ptr, ptr %22, align 8
  %.not.i = icmp eq ptr %23, null
  br i1 %.not.i, label %MarkPortalFailed.exit.thread, label %24

24:                                               ; preds = %21
  call void %23(ptr noundef nonnull %10) #8
  store ptr null, ptr %22, align 8
  %.pr = load i32, ptr %18, align 8
  br label %MarkPortalFailed.exit

MarkPortalFailed.exit:                            ; preds = %24, %17
  %25 = phi i32 [ %.pr, %24 ], [ %19, %17 ]
  %26 = icmp eq i32 %25, 5
  br i1 %26, label %MarkPortalFailed.exit.thread, label %47, !llvm.loop !13

MarkPortalFailed.exit.thread:                     ; preds = %21, %MarkPortalFailed.exit
  %27 = getelementptr inbounds nuw i8, ptr %10, i64 24
  %28 = load ptr, ptr %27, align 8
  %.not29 = icmp eq ptr %28, null
  br i1 %.not29, label %47, label %29, !llvm.loop !13

29:                                               ; preds = %MarkPortalFailed.exit.thread
  call void @ResourceOwnerNewParent(ptr noundef nonnull %28, ptr noundef %2) #8
  store ptr null, ptr %27, align 8
  br label %47, !llvm.loop !13

30:                                               ; preds = %.lr.ph
  %31 = getelementptr inbounds nuw i8, ptr %10, i64 128
  %32 = load i32, ptr %31, align 8
  %33 = and i32 %32, -2
  %switch = icmp eq i32 %33, 2
  br i1 %switch, label %34, label %MarkPortalFailed.exit31

34:                                               ; preds = %30
  store i32 5, ptr %31, align 8
  %35 = getelementptr inbounds nuw i8, ptr %10, i64 32
  %36 = load ptr, ptr %35, align 8
  %.not.i30 = icmp eq ptr %36, null
  br i1 %.not.i30, label %MarkPortalFailed.exit31.thread, label %37

37:                                               ; preds = %34
  call void %36(ptr noundef nonnull %10) #8
  store ptr null, ptr %35, align 8
  br label %MarkPortalFailed.exit31.thread

MarkPortalFailed.exit31:                          ; preds = %30
  %.phi.trans.insert = getelementptr inbounds nuw i8, ptr %10, i64 32
  %.pre = load ptr, ptr %.phi.trans.insert, align 8
  %.not28 = icmp eq ptr %.pre, null
  br i1 %.not28, label %MarkPortalFailed.exit31.thread, label %38

38:                                               ; preds = %MarkPortalFailed.exit31
  %39 = getelementptr inbounds nuw i8, ptr %10, i64 32
  call void %.pre(ptr noundef nonnull %10) #8
  store ptr null, ptr %39, align 8
  br label %MarkPortalFailed.exit31.thread

MarkPortalFailed.exit31.thread:                   ; preds = %34, %37, %38, %MarkPortalFailed.exit31
  %40 = getelementptr inbounds nuw i8, ptr %10, i64 96
  %41 = load ptr, ptr %40, align 8
  %.not.i32 = icmp eq ptr %41, null
  br i1 %.not.i32, label %PortalReleaseCachedPlan.exit, label %42

42:                                               ; preds = %MarkPortalFailed.exit31.thread
  call void @ReleaseCachedPlan(ptr noundef nonnull %41, ptr noundef null) #8
  %43 = getelementptr inbounds nuw i8, ptr %10, i64 88
  call void @llvm.memset.p0.i64(ptr noundef nonnull align 8 dereferenceable(16) %43, i8 0, i64 16, i1 false)
  br label %PortalReleaseCachedPlan.exit

PortalReleaseCachedPlan.exit:                     ; preds = %MarkPortalFailed.exit31.thread, %42
  %44 = getelementptr inbounds nuw i8, ptr %10, i64 24
  store ptr null, ptr %44, align 8
  %45 = getelementptr inbounds nuw i8, ptr %10, i64 16
  %46 = load ptr, ptr %45, align 8
  call void @MemoryContextDeleteChildren(ptr noundef %46) #8
  br label %47

47:                                               ; preds = %13, %29, %MarkPortalFailed.exit.thread, %MarkPortalFailed.exit, %PortalReleaseCachedPlan.exit
  %48 = call ptr @hash_seq_search(ptr noundef nonnull %5) #8
  %.not = icmp eq ptr %48, null
  br i1 %.not, label %._crit_edge, label %.lr.ph

._crit_edge:                                      ; preds = %47, %4
  call void @llvm.lifetime.end.p0(i64 32, ptr nonnull %5) #8
  ret void
}